target datalayout = "e-m:e-p270:32:32-p271:32:32-p272:64:64-i64:64-i128:128-f80:128-n8:16:32:64-S128"
target triple = "x86_64-pc-linux-gnu"

%struct.ControlData = type { i32, i32, [25 x i8], i32, i32, i32, i32, i32, i32, i32, i32, i32, i32, i32, i32, i32, i32, i32, i32, i8, i8, i32 }

@.str.82 = private unnamed_addr constant [124 x i8] c"old and new pg_controldata alignments are invalid or do not match.\0ALikely one cluster is a 32-bit install, the other 64-bit\00", align 1
@.str.83 = private unnamed_addr constant [67 x i8] c"old and new pg_controldata block sizes are invalid or do not match\00", align 1
@.str.84 = private unnamed_addr constant [86 x i8] c"old and new pg_controldata maximum relation segment sizes are invalid or do not match\00", align 1
@.str.85 = private unnamed_addr constant [71 x i8] c"old and new pg_controldata WAL block sizes are invalid or do not match\00", align 1
@.str.86 = private unnamed_addr constant [73 x i8] c"old and new pg_controldata WAL segment sizes are invalid or do not match\00", align 1
@.str.87 = private unnamed_addr constant [82 x i8] c"old and new pg_controldata maximum identifier lengths are invalid or do not match\00", align 1
@.str.88 = private unnamed_addr constant [79 x i8] c"old and new pg_controldata maximum indexed columns are invalid or do not match\00", align 1
@.str.89 = private unnamed_addr constant [81 x i8] c"old and new pg_controldata maximum TOAST chunk sizes are invalid or do not match\00", align 1
@.str.90 = private unnamed_addr constant [80 x i8] c"old and new pg_controldata large-object chunk sizes are invalid or do not match\00", align 1
@.str.91 = private unnamed_addr constant [64 x i8] c"old and new pg_controldata date/time storage types do not match\00", align 1
@.str.92 = private unnamed_addr constant [61 x i8] c"old cluster does not use data checksums but the new one does\00", align 1
@.str.93 = private unnamed_addr constant [57 x i8] c"old cluster uses data checksums but the new one does not\00", align 1
@.str.94 = private unnamed_addr constant [66 x i8] c"old and new cluster pg_controldata checksum versions do not match\00", align 1

; Function Attrs: nounwind uwtable
define dso_local void @check_control_data(ptr noundef %0, ptr noundef %1) #0 {
  %3 = alloca ptr, align 8
  %4 = alloca ptr, align 8
  store ptr %0, ptr %3, align 8
  store ptr %1, ptr %4, align 8
  %5 = load ptr, ptr %3, align 8
  %6 = getelementptr inbounds nuw %struct.ControlData, ptr %5, i32 0, i32 10
  %7 = load i32, ptr %6, align 4
  %8 = icmp eq i32 %7, 0
  br i1 %8, label %17, label %9

9:                                                ; preds = %2
  %10 = load ptr, ptr %3, align 8
  %11 = getelementptr inbounds nuw %struct.ControlData, ptr %10, i32 0, i32 10
  %12 = load i32, ptr %11, align 4
  %13 = load ptr, ptr %4, align 8
  %14 = getelementptr inbounds nuw %struct.ControlData, ptr %13, i32 0, i32 10
  %15 = load i32, ptr %14, align 4
  %16 = icmp ne i32 %12, %15
  br i1 %16, label %17, label %18

17:                                               ; preds = %9, %2
  call void (ptr, ...) @pg_fatal(ptr noundef @.str.82) #7
  unreachable

18:                                               ; preds = %9
  %19 = load ptr, ptr %3, align 8
  %20 = getelementptr inbounds nuw %struct.ControlData, ptr %19, i32 0, i32 11
  %21 = load i32, ptr %20, align 4
  %22 = icmp eq i32 %21, 0
  br i1 %22, label %31, label %23

23:                                               ; preds = %18
  %24 = load ptr, ptr %3, align 8
  %25 = getelementptr inbounds nuw %struct.ControlData, ptr %24, i32 0, i32 11
  %26 = load i32, ptr %25, align 4
  %27 = load ptr, ptr %4, align 8
  %28 = getelementptr inbounds nuw %struct.ControlData, ptr %27, i32 0, i32 11
  %29 = load i32, ptr %28, align 4
  %30 = icmp ne i32 %26, %29
  br i1 %30, label %31, label %32

31:                                               ; preds = %23, %18
  call void (ptr, ...) @pg_fatal(ptr noundef @.str.83) #7
  unreachable

32:                                               ; preds = %23
  %33 = load ptr, ptr %3, align 8
  %34 = getelementptr inbounds nuw %struct.ControlData, ptr %33, i32 0, i32 12
  %35 = load i32, ptr %34, align 4
  %36 = icmp eq i32 %35, 0
  br i1 %36, label %45, label %37

37:                                               ; preds = %32
  %38 = load ptr, ptr %3, align 8
  %39 = getelementptr inbounds nuw %struct.ControlData, ptr %38, i32 0, i32 12
  %40 = load i32, ptr %39, align 4
  %41 = load ptr, ptr %4, align 8
  %42 = getelementptr inbounds nuw %struct.ControlData, ptr %41, i32 0, i32 12
  %43 = load i32, ptr %42, align 4
  %44 = icmp ne i32 %40, %43
  br i1 %44, label %45, label %46

45:                                               ; preds = %37, %32
  call void (ptr, ...) @pg_fatal(ptr noundef @.str.84) #7
  unreachable

46:                                               ; preds = %37
  %47 = load ptr, ptr %3, align 8
  %48 = getelementptr inbounds nuw %struct.ControlData, ptr %47, i32 0, i32 13
  %49 = load i32, ptr %48, align 4
  %50 = icmp eq i32 %49, 0
  br i1 %50, label %59, label %51

51:                                               ; preds = %46
  %52 = load ptr, ptr %3, align 8
  %53 = getelementptr inbounds nuw %struct.ControlData, ptr %52, i32 0, i32 13
  %54 = load i32, ptr %53, align 4
  %55 = load ptr, ptr %4, align 8
  %56 = getelementptr inbounds nuw %struct.ControlData, ptr %55, i32 0, i32 13
  %57 = load i32, ptr %56, align 4
  %58 = icmp ne i32 %54, %57
  br i1 %58, label %59, label %60

59:                                               ; preds = %51, %46
  call void (ptr, ...) @pg_fatal(ptr noundef @.str.85) #7
  unreachable

60:                                               ; preds = %51
  %61 = load ptr, ptr %3, align 8
  %62 = getelementptr inbounds nuw %struct.ControlData, ptr %61, i32 0, i32 14
  %63 = load i32, ptr %62, align 4
  %64 = icmp eq i32 %63, 0
  br i1 %64, label %73, label %65

65:                                               ; preds = %60
  %66 = load ptr, ptr %3, align 8
  %67 = getelementptr inbounds nuw %struct.ControlData, ptr %66, i32 0, i32 14
  %68 = load i32, ptr %67, align 4
  %69 = load ptr, ptr %4, align 8
  %70 = getelementptr inbounds nuw %struct.ControlData, ptr %69, i32 0, i32 14
  %71 = load i32, ptr %70, align 4
  %72 = icmp ne i32 %68, %71
  br i1 %72, label %73, label %74

73:                                               ; preds = %65, %60
  call void (ptr, ...) @pg_fatal(ptr noundef @.str.86) #7
  unreachable

74:                                               ; preds = %65
  %75 = load ptr, ptr %3, align 8
  %76 = getelementptr inbounds nuw %struct.ControlData, ptr %75, i32 0, i32 15
  %77 = load i32, ptr %76, align 4
  %78 = icmp eq i32 %77, 0
  br i1 %78, label %87, label %79

79:                                               ; preds = %74
  %80 = load ptr, ptr %3, align 8
  %81 = getelementptr inbounds nuw %struct.ControlData, ptr %80, i32 0, i32 15
  %82 = load i32, ptr %81, align 4
  %83 = load ptr, ptr %4, align 8
  %84 = getelementptr inbounds nuw %struct.ControlData, ptr %83, i32 0, i32 15
  %85 = load i32, ptr %84, align 4
  %86 = icmp ne i32 %82, %85
  br i1 %86, label %87, label %88

87:                                               ; preds = %79, %74
  call void (ptr, ...) @pg_fatal(ptr noundef @.str.87) #7
  unreachable

88:                                               ; preds = %79
  %89 = load ptr, ptr %3, align 8
  %90 = getelementptr inbounds nuw %struct.ControlData, ptr %89, i32 0, i32 16
  %91 = load i32, ptr %90, align 4
  %92 = icmp eq i32 %91, 0
  br i1 %92, label %101, label %93

93:                                               ; preds = %88
  %94 = load ptr, ptr %3, align 8
  %95 = getelementptr inbounds nuw %struct.ControlData, ptr %94, i32 0, i32 16
  %96 = load i32, ptr %95, align 4
  %97 = load ptr, ptr %4, align 8
  %98 = getelementptr inbounds nuw %struct.ControlData, ptr %97, i32 0, i32 16
  %99 = load i32, ptr %98, align 4
  %100 = icmp ne i32 %96, %99
  br i1 %100, label %101, label %102

101:                                              ; preds = %93, %88
  call void (ptr, ...) @pg_fatal(ptr noundef @.str.88) #7
  unreachable

102:                                              ; preds = %93
  %103 = load ptr, ptr %3, align 8
  %104 = getelementptr inbounds nuw %struct.ControlData, ptr %103, i32 0, i32 17
  %105 = load i32, ptr %104, align 4
  %106 = icmp eq i32 %105, 0
  br i1 %106, label %115, label %107

107:                                              ; preds = %102
  %108 = load ptr, ptr %3, align 8
  %109 = getelementptr inbounds nuw %struct.ControlData, ptr %108, i32 0, i32 17
  %110 = load i32, ptr %109, align 4
  %111 = load ptr, ptr %4, align 8
  %112 = getelementptr inbounds nuw %struct.ControlData, ptr %111, i32 0, i32 17
  %113 = load i32, ptr %112, align 4
  %114 = icmp ne i32 %110, %113
  br i1 %114, label %115, label %116

115:                                              ; preds = %107, %102
  call void (ptr, ...) @pg_fatal(ptr noundef @.str.89) #7
  unreachable

116:                                              ; preds = %107
  %117 = load ptr, ptr %3, align 8
  %118 = getelementptr inbounds nuw %struct.ControlData, ptr %117, i32 0, i32 18
  %119 = load i32, ptr %118, align 4
  %120 = icmp ne i32 %119, 0
  br i1 %120, label %121, label %130

121:                                              ; preds = %116
  %122 = load ptr, ptr %3, align 8
  %123 = getelementptr inbounds nuw %struct.ControlData, ptr %122, i32 0, i32 18
  %124 = load i32, ptr %123, align 4
  %125 = load ptr, ptr %4, align 8
  %126 = getelementptr inbounds nuw %struct.ControlData, ptr %125, i32 0, i32 18
  %127 = load i32, ptr %126, align 4
  %128 = icmp ne i32 %124, %127
  br i1 %128, label %129, label %130

129:                                              ; preds = %121
  call void (ptr, ...) @pg_fatal(ptr noundef @.str.90) #7
  unreachable

130:                                              ; preds = %121, %116
  %131 = load ptr, ptr %3, align 8
  %132 = getelementptr inbounds nuw %struct.ControlData, ptr %131, i32 0, i32 19
  %133 = load i8, ptr %132, align 4, !range !4, !noundef !5
  %134 = trunc i8 %133 to i1
  %135 = zext i1 %134 to i32
  %136 = load ptr, ptr %4, align 8
  %137 = getelementptr inbounds nuw %struct.ControlData, ptr %136, i32 0, i32 19
  %138 = load i8, ptr %137, align 4, !range !4, !noundef !5
  %139 = trunc i8 %138 to i1
  %140 = zext i1 %139 to i32
  %141 = icmp ne i32 %135, %140
  br i1 %141, label %142, label %143

142:                                              ; preds = %130
  call void (ptr, ...) @pg_fatal(ptr noundef @.str.91) #7
  unreachable

143:                                              ; preds = %130
  %144 = load ptr, ptr %3, align 8
  %145 = getelementptr inbounds nuw %struct.ControlData, ptr %144, i32 0, i32 21
  %146 = load i32, ptr %145, align 4
  %147 = icmp eq i32 %146, 0
  br i1 %147, label %148, label %154

148:                                              ; preds = %143
  %149 = load ptr, ptr %4, align 8
  %150 = getelementptr inbounds nuw %struct.ControlData, ptr %149, i32 0, i32 21
  %151 = load i32, ptr %150, align 4
  %152 = icmp ne i32 %151, 0
  br i1 %152, label %153, label %154

153:                                              ; preds = %148
  call void (ptr, ...) @pg_fatal(ptr noundef @.str.92) #7
  unreachable

154:                                              ; preds = %148, %143
  %155 = load ptr, ptr %3, align 8
  %156 = getelementptr inbounds nuw %struct.ControlData, ptr %155, i32 0, i32 21
  %157 = load i32, ptr %156, align 4
  %158 = icmp ne i32 %157, 0
  br i1 %158, label %159, label %165

159:                                              ; preds = %154
  %160 = load ptr, ptr %4, align 8
  %161 = getelementptr inbounds nuw %struct.ControlData, ptr %160, i32 0, i32 21
  %162 = load i32, ptr %161, align 4
  %163 = icmp eq i32 %162, 0
  br i1 %163, label %164, label %165

164:                                              ; preds = %159
  call void (ptr, ...) @pg_fatal(ptr noundef @.str.93) #7
  unreachable

165:                                              ; preds = %159, %154
  %166 = load ptr, ptr %3, align 8
  %167 = getelementptr inbounds nuw %struct.ControlData, ptr %166, i32 0, i32 21
  %168 = load i32, ptr %167, align 4
  %169 = load ptr, ptr %4, align 8
  %170 = getelementptr inbounds nuw %struct.ControlData, ptr %169, i32 0, i32 21
  %171 = load i32, ptr %170, align 4
  %172 = icmp ne i32 %168, %171
  br i1 %172, label %173, label %174

173:                                              ; preds = %165
  call void (ptr, ...) @pg_fatal(ptr noundef @.str.94) #7
  unreachable

174:                                              ; preds = %165
  br label %175

175:                                              ; preds = %174
  br label %176

176:                                              ; preds = %175
  ret void
}