; Function Attrs: nounwind uwtable
define dso_local void @check_control_data(ptr noundef readonly captures(none) %0, ptr noundef readonly captures(none) %1) local_unnamed_addr #0 {
  %3 = getelementptr inbounds nuw i8, ptr %0, i64 64
  %4 = load i32, ptr %3, align 4
  %5 = icmp eq i32 %4, 0
  br i1 %5, label %9, label %6

6:                                                ; preds = %2
  %7 = getelementptr inbounds nuw i8, ptr %1, i64 64
  %8 = load i32, ptr %7, align 4
  %.not = icmp eq i32 %4, %8
  br i1 %.not, label %10, label %9

9:                                                ; preds = %6, %2
  tail call void (ptr, ...) @pg_fatal(ptr noundef nonnull @.str.82) #10
  unreachable

10:                                               ; preds = %6
  %11 = getelementptr inbounds nuw i8, ptr %0, i64 68
  %12 = load i32, ptr %11, align 4
  %13 = icmp eq i32 %12, 0
  br i1 %13, label %17, label %14

14:                                               ; preds = %10
  %15 = getelementptr inbounds nuw i8, ptr %1, i64 68
  %16 = load i32, ptr %15, align 4
  %.not43 = icmp eq i32 %12, %16
  br i1 %.not43, label %18, label %17

17:                                               ; preds = %14, %10
  tail call void (ptr, ...) @pg_fatal(ptr noundef nonnull @.str.83) #10
  unreachable

18:                                               ; preds = %14
  %19 = getelementptr inbounds nuw i8, ptr %0, i64 72
  %20 = load i32, ptr %19, align 4
  %21 = icmp eq i32 %20, 0
  br i1 %21, label %25, label %22

22:                                               ; preds = %18
  %23 = getelementptr inbounds nuw i8, ptr %1, i64 72
  %24 = load i32, ptr %23, align 4
  %.not44 = icmp eq i32 %20, %24
  br i1 %.not44, label %26, label %25

25:                                               ; preds = %22, %18
  tail call void (ptr, ...) @pg_fatal(ptr noundef nonnull @.str.84) #10
  unreachable

26:                                               ; preds = %22
  %27 = getelementptr inbounds nuw i8, ptr %0, i64 76
  %28 = load i32, ptr %27, align 4
  %29 = icmp eq i32 %28, 0
  br i1 %29, label %33, label %30

30:                                               ; preds = %26
  %31 = getelementptr inbounds nuw i8, ptr %1, i64 76
  %32 = load i32, ptr %31, align 4
  %.not45 = icmp eq i32 %28, %32
  br i1 %.not45, label %34, label %33

33:                                               ; preds = %30, %26
  tail call void (ptr, ...) @pg_fatal(ptr noundef nonnull @.str.85) #10
  unreachable

34:                                               ; preds = %30
  %35 = getelementptr inbounds nuw i8, ptr %0, i64 80
  %36 = load i32, ptr %35, align 4
  %37 = icmp eq i32 %36, 0
  br i1 %37, label %41, label %38

38:                                               ; preds = %34
  %39 = getelementptr inbounds nuw i8, ptr %1, i64 80
  %40 = load i32, ptr %39, align 4
  %.not46 = icmp eq i32 %36, %40
  br i1 %.not46, label %42, label %41

41:                                               ; preds = %38, %34
  tail call void (ptr, ...) @pg_fatal(ptr noundef nonnull @.str.86) #10
  unreachable

42:                                               ; preds = %38
  %43 = getelementptr inbounds nuw i8, ptr %0, i64 84
  %44 = load i32, ptr %43, align 4
  %45 = icmp eq i32 %44, 0
  br i1 %45, label %49, label %46

46:                                               ; preds = %42
  %47 = getelementptr inbounds nuw i8, ptr %1, i64 84
  %48 = load i32, ptr %47, align 4
  %.not47 = icmp eq i32 %44, %48
  br i1 %.not47, label %50, label %49

49:                                               ; preds = %46, %42
  tail call void (ptr, ...) @pg_fatal(ptr noundef nonnull @.str.87) #10
  unreachable

50:                                               ; preds = %46
  %51 = getelementptr inbounds nuw i8, ptr %0, i64 88
  %52 = load i32, ptr %51, align 4
  %53 = icmp eq i32 %52, 0
  br i1 %53, label %57, label %54

54:                                               ; preds = %50
  %55 = getelementptr inbounds nuw i8, ptr %1, i64 88
  %56 = load i32, ptr %55, align 4
  %.not48 = icmp eq i32 %52, %56
  br i1 %.not48, label %58, label %57

57:                                               ; preds = %54, %50
  tail call void (ptr, ...) @pg_fatal(ptr noundef nonnull @.str.88) #10
  unreachable

58:                                               ; preds = %54
  %59 = getelementptr inbounds nuw i8, ptr %0, i64 92
  %60 = load i32, ptr %59, align 4
  %61 = icmp eq i32 %60, 0
  br i1 %61, label %65, label %62

62:                                               ; preds = %58
  %63 = getelementptr inbounds nuw i8, ptr %1, i64 92
  %64 = load i32, ptr %63, align 4
  %.not49 = icmp eq i32 %60, %64
  br i1 %.not49, label %66, label %65

65:                                               ; preds = %62, %58
  tail call void (ptr, ...) @pg_fatal(ptr noundef nonnull @.str.89) #10
  unreachable

66:                                               ; preds = %62
  %67 = getelementptr inbounds nuw i8, ptr %0, i64 96
  %68 = load i32, ptr %67, align 4
  %.not50 = icmp eq i32 %68, 0
  br i1 %.not50, label %73, label %69

69:                                               ; preds = %66
  %70 = getelementptr inbounds nuw i8, ptr %1, i64 96
  %71 = load i32, ptr %70, align 4
  %.not51 = icmp eq i32 %68, %71
  br i1 %.not51, label %73, label %72

72:                                               ; preds = %69
  tail call void (ptr, ...) @pg_fatal(ptr noundef nonnull @.str.90) #10
  unreachable

73:                                               ; preds = %69, %66
  %74 = getelementptr inbounds nuw i8, ptr %0, i64 100
  %75 = load i8, ptr %74, align 4, !range !4, !noundef !9
  %76 = getelementptr inbounds nuw i8, ptr %1, i64 100
  %77 = load i8, ptr %76, align 4, !range !4, !noundef !9
  %.not52 = icmp eq i8 %75, %77
  br i1 %.not52, label %79, label %78

78:                                               ; preds = %73
  tail call void (ptr, ...) @pg_fatal(ptr noundef nonnull @.str.91) #10
  unreachable

79:                                               ; preds = %73
  %80 = getelementptr inbounds nuw i8, ptr %0, i64 104
  %81 = load i32, ptr %80, align 4
  %82 = icmp eq i32 %81, 0
  %83 = getelementptr inbounds nuw i8, ptr %1, i64 104
  %84 = load i32, ptr %83, align 4
  %.not53 = icmp eq i32 %84, 0
  br i1 %82, label %85, label %87

85:                                               ; preds = %79
  br i1 %.not53, label %.thread.thread, label %86

86:                                               ; preds = %85
  tail call void (ptr, ...) @pg_fatal(ptr noundef nonnull @.str.92) #10
  unreachable

87:                                               ; preds = %79
  br i1 %.not53, label %88, label %.thread

88:                                               ; preds = %87
  tail call void (ptr, ...) @pg_fatal(ptr noundef nonnull @.str.93) #10
  unreachable

.thread:                                          ; preds = %87
  %.not55 = icmp eq i32 %81, %84
  br i1 %.not55, label %.thread.thread, label %89

89:                                               ; preds = %.thread
  tail call void (ptr, ...) @pg_fatal(ptr noundef nonnull @.str.94) #10
  unreachable

.thread.thread:                                   ; preds = %85, %.thread
  ret void
}